target datalayout = "e-m:e-p270:32:32-p271:32:32-p272:64:64-i64:64-i128:128-f80:128-n8:16:32:64-S128"
target triple = "x86_64-pc-linux-gnu"

%struct.sio_par = type { i32, i32, i32, i32, i32, i32, i32, i32, i32, i32, i32, i32, [3 x i32], i32 }
%struct.PaSndioStream = type { %struct.PaUtilStreamRepresentation, %struct.PaUtilBufferProcessor, ptr, %struct.sio_par, i32, i32, i32, i64, ptr, ptr, i64, i64, i64 }
%struct.PaUtilStreamRepresentation = type { i64, ptr, ptr, ptr, ptr, ptr, %struct.PaStreamInfo }
%struct.PaStreamInfo = type { i32, double, double, double }
%struct.PaUtilBufferProcessor = type { i64, i64, i32, i32, i32, i32, i64, i32, i32, i32, i32, ptr, ptr, i32, i32, i32, i32, ptr, ptr, i64, i64, ptr, ptr, i64, ptr, ptr, i64, ptr, i64, i32, [2 x i64], [2 x ptr], i32, [2 x i64], [2 x ptr], %struct.PaUtilTriangularDitherGenerator, double, ptr, ptr }
%struct.PaUtilTriangularDitherGenerator = type { i32, i32, i32 }

; Function Attrs: nounwind uwtable
define internal i32 @BlockingWriteStream(ptr noundef %0, ptr noundef %1, i64 noundef %2) #0 {
  %4 = alloca i32, align 4
  %5 = alloca ptr, align 8
  %6 = alloca ptr, align 8
  %7 = alloca i64, align 8
  %8 = alloca ptr, align 8
  %9 = alloca i32, align 4
  %10 = alloca i32, align 4
  store ptr %0, ptr %5, align 8
  store ptr %1, ptr %6, align 8
  store i64 %2, ptr %7, align 8
  %11 = load ptr, ptr %5, align 8
  store ptr %11, ptr %8, align 8
  br label %12

12:                                               ; preds = %75, %3
  %13 = load i64, ptr %7, align 8
  %14 = icmp ugt i64 %13, 0
  br i1 %14, label %15, label %86

15:                                               ; preds = %12
  %16 = load ptr, ptr %8, align 8
  %17 = getelementptr inbounds nuw %struct.PaSndioStream, ptr %16, i32 0, i32 3
  %18 = getelementptr inbounds nuw %struct.sio_par, ptr %17, i32 0, i32 10
  %19 = load i32, ptr %18, align 8
  store i32 %19, ptr %9, align 4
  %20 = load i32, ptr %9, align 4
  %21 = zext i32 %20 to i64
  %22 = load i64, ptr %7, align 8
  %23 = icmp ugt i64 %21, %22
  br i1 %23, label %24, label %27

24:                                               ; preds = %15
  %25 = load i64, ptr %7, align 8
  %26 = trunc i64 %25 to i32
  store i32 %26, ptr %9, align 4
  br label %27

27:                                               ; preds = %24, %15
  %28 = load ptr, ptr %8, align 8
  %29 = getelementptr inbounds nuw %struct.PaSndioStream, ptr %28, i32 0, i32 1
  %30 = load i32, ptr %9, align 4
  %31 = zext i32 %30 to i64
  call void @PaUtil_SetOutputFrameCount(ptr noundef %29, i64 noundef %31)
  %32 = load ptr, ptr %8, align 8
  %33 = getelementptr inbounds nuw %struct.PaSndioStream, ptr %32, i32 0, i32 1
  %34 = load ptr, ptr %8, align 8
  %35 = getelementptr inbounds nuw %struct.PaSndioStream, ptr %34, i32 0, i32 9
  %36 = load ptr, ptr %35, align 8
  %37 = load ptr, ptr %8, align 8
  %38 = getelementptr inbounds nuw %struct.PaSndioStream, ptr %37, i32 0, i32 3
  %39 = getelementptr inbounds nuw %struct.sio_par, ptr %38, i32 0, i32 6
  %40 = load i32, ptr %39, align 8
  call void @PaUtil_SetInterleavedOutputChannels(ptr noundef %33, i32 noundef 0, ptr noundef %36, i32 noundef %40)
  %41 = load ptr, ptr %8, align 8
  %42 = getelementptr inbounds nuw %struct.PaSndioStream, ptr %41, i32 0, i32 1
  %43 = load i32, ptr %9, align 4
  %44 = zext i32 %43 to i64
  %45 = call i64 @PaUtil_CopyOutput(ptr noundef %42, ptr noundef %6, i64 noundef %44)
  %46 = trunc i64 %45 to i32
  store i32 %46, ptr %10, align 4
  %47 = load i32, ptr %10, align 4
  %48 = load i32, ptr %9, align 4
  %49 = icmp ne i32 %47, %48
  br i1 %49, label %50, label %51

50:                                               ; preds = %27
  store i32 -9999, ptr %4, align 4
  br label %87

51:                                               ; preds = %27
  %52 = load ptr, ptr %8, align 8
  %53 = getelementptr inbounds nuw %struct.PaSndioStream, ptr %52, i32 0, i32 2
  %54 = load ptr, ptr %53, align 8
  %55 = load ptr, ptr %8, align 8
  %56 = getelementptr inbounds nuw %struct.PaSndioStream, ptr %55, i32 0, i32 9
  %57 = load ptr, ptr %56, align 8
  %58 = load i32, ptr %9, align 4
  %59 = load ptr, ptr %8, align 8
  %60 = getelementptr inbounds nuw %struct.PaSndioStream, ptr %59, i32 0, i32 3
  %61 = getelementptr inbounds nuw %struct.sio_par, ptr %60, i32 0, i32 6
  %62 = load i32, ptr %61, align 8
  %63 = mul i32 %58, %62
  %64 = load ptr, ptr %8, align 8
  %65 = getelementptr inbounds nuw %struct.PaSndioStream, ptr %64, i32 0, i32 3
  %66 = getelementptr inbounds nuw %struct.sio_par, ptr %65, i32 0, i32 1
  %67 = load i32, ptr %66, align 4
  %68 = mul i32 %63, %67
  %69 = zext i32 %68 to i64
  %70 = call i64 @sio_write(ptr noundef %54, ptr noundef %57, i64 noundef %69)
  %71 = trunc i64 %70 to i32
  store i32 %71, ptr %10, align 4
  %72 = load i32, ptr %10, align 4
  %73 = icmp eq i32 %72, 0
  br i1 %73, label %74, label %75

74:                                               ; preds = %51
  store i32 -9999, ptr %4, align 4
  br label %87

75:                                               ; preds = %51
  %76 = load i32, ptr %9, align 4
  %77 = zext i32 %76 to i64
  %78 = load ptr, ptr %8, align 8
  %79 = getelementptr inbounds nuw %struct.PaSndioStream, ptr %78, i32 0, i32 11
  %80 = load i64, ptr %79, align 8
  %81 = add i64 %80, %77
  store i64 %81, ptr %79, align 8
  %82 = load i32, ptr %9, align 4
  %83 = zext i32 %82 to i64
  %84 = load i64, ptr %7, align 8
  %85 = sub i64 %84, %83
  store i64 %85, ptr %7, align 8
  br label %12, !llvm.loop !9

86:                                               ; preds = %12
  store i32 0, ptr %4, align 4
  br label %87

87:                                               ; preds = %86, %74, %50
  %88 = load i32, ptr %4, align 4
  ret i32 %88
}