; Function Attrs: nounwind uwtable
define internal range(i32 -9999, 1) i32 @BlockingWriteStream(ptr noundef %0, ptr noundef %1, i64 noundef %2) #0 {
  %4 = alloca ptr, align 8
  store ptr %1, ptr %4, align 8
  %5 = getelementptr inbounds i8, ptr %0, i64 432
  %6 = getelementptr inbounds nuw i8, ptr %0, i64 384
  %.not28 = icmp eq i64 %2, 0
  br i1 %.not28, label %._crit_edge, label %.lr.ph

.lr.ph:                                           ; preds = %3
  %7 = getelementptr inbounds nuw i8, ptr %0, i64 80
  %8 = getelementptr inbounds nuw i8, ptr %0, i64 488
  %9 = getelementptr inbounds i8, ptr %0, i64 416
  %10 = getelementptr inbounds i8, ptr %0, i64 396
  %11 = getelementptr inbounds nuw i8, ptr %0, i64 504
  br label %12

12:                                               ; preds = %.lr.ph, %33
  %.02629 = phi i64 [ %2, %.lr.ph ], [ %36, %33 ]
  %13 = load i32, ptr %5, align 8
  %14 = zext i32 %13 to i64
  %15 = icmp ult i64 %.02629, %14
  %16 = trunc nuw i64 %.02629 to i32
  %spec.select = select i1 %15, i32 %16, i32 %13
  %17 = zext i32 %spec.select to i64
  call void @PaUtil_SetOutputFrameCount(ptr noundef nonnull %7, i64 noundef %17) #16
  %18 = load ptr, ptr %8, align 8
  %19 = load i32, ptr %9, align 8
  call void @PaUtil_SetInterleavedOutputChannels(ptr noundef nonnull %7, i32 noundef 0, ptr noundef %18, i32 noundef %19) #16
  %20 = call i64 @PaUtil_CopyOutput(ptr noundef nonnull %7, ptr noundef nonnull %4, i64 noundef %17) #16
  %21 = trunc i64 %20 to i32
  %.not27 = icmp eq i32 %spec.select, %21
  br i1 %.not27, label %22, label %._crit_edge

22:                                               ; preds = %12
  %23 = load ptr, ptr %6, align 8
  %24 = load ptr, ptr %8, align 8
  %25 = load i32, ptr %9, align 8
  %26 = mul i32 %25, %spec.select
  %27 = load i32, ptr %10, align 4
  %28 = mul i32 %26, %27
  %29 = zext i32 %28 to i64
  %30 = call i64 @sio_write(ptr noundef %23, ptr noundef %24, i64 noundef %29) #16
  %31 = and i64 %30, 4294967295
  %32 = icmp eq i64 %31, 0
  br i1 %32, label %._crit_edge, label %33

33:                                               ; preds = %22
  %34 = load i64, ptr %11, align 8
  %35 = add i64 %34, %17
  store i64 %35, ptr %11, align 8
  %36 = sub i64 %.02629, %17
  %.not = icmp eq i64 %36, 0
  br i1 %.not, label %._crit_edge, label %12, !llvm.loop !9

._crit_edge:                                      ; preds = %12, %22, %33, %3
  %.025 = phi i32 [ 0, %3 ], [ 0, %33 ], [ -9999, %22 ], [ -9999, %12 ]
  ret i32 %.025
}